target datalayout = "e-m:e-p270:32:32-p271:32:32-p272:64:64-i64:64-i128:128-f80:128-n8:16:32:64-S128"
target triple = "x86_64-pc-linux-gnu"

%struct.UCHARBUF = type { ptr, ptr, ptr, i32, i32, i32, ptr, ptr, i8, i8 }

; Function Attrs: mustprogress uwtable
define i32 @ucbuf_size(ptr noundef %0) #0 {
  %2 = alloca i32, align 4
  %3 = alloca ptr, align 8
  store ptr %0, ptr %3, align 8, !tbaa !28
  %4 = load ptr, ptr %3, align 8, !tbaa !28
  %5 = icmp ne ptr %4, null
  br i1 %5, label %6, label %38

6:                                                ; preds = %1
  %7 = load ptr, ptr %3, align 8, !tbaa !28
  %8 = getelementptr inbounds nuw %struct.UCHARBUF, ptr %7, i32 0, i32 9
  %9 = load i8, ptr %8, align 1, !tbaa !35
  %10 = icmp ne i8 %9, 0
  br i1 %10, label %11, label %26

11:                                               ; preds = %6
  %12 = load ptr, ptr %3, align 8, !tbaa !28
  %13 = getelementptr inbounds nuw %struct.UCHARBUF, ptr %12, i32 0, i32 6
  %14 = load ptr, ptr %13, align 8, !tbaa !36
  %15 = call i32 @T_FileStream_size(ptr noundef %14)
  %16 = load ptr, ptr %3, align 8, !tbaa !28
  %17 = getelementptr inbounds nuw %struct.UCHARBUF, ptr %16, i32 0, i32 5
  %18 = load i32, ptr %17, align 8, !tbaa !43
  %19 = sub nsw i32 %15, %18
  %20 = load ptr, ptr %3, align 8, !tbaa !28
  %21 = getelementptr inbounds nuw %struct.UCHARBUF, ptr %20, i32 0, i32 7
  %22 = load ptr, ptr %21, align 8, !tbaa !37
  %23 = call signext i8 @ucnv_getMinCharSize_77(ptr noundef %22)
  %24 = sext i8 %23 to i32
  %25 = sdiv i32 %19, %24
  store i32 %25, ptr %2, align 4
  br label %39

26:                                               ; preds = %6
  %27 = load ptr, ptr %3, align 8, !tbaa !28
  %28 = getelementptr inbounds nuw %struct.UCHARBUF, ptr %27, i32 0, i32 2
  %29 = load ptr, ptr %28, align 8, !tbaa !32
  %30 = load ptr, ptr %3, align 8, !tbaa !28
  %31 = getelementptr inbounds nuw %struct.UCHARBUF, ptr %30, i32 0, i32 0
  %32 = load ptr, ptr %31, align 8, !tbaa !34
  %33 = ptrtoint ptr %29 to i64
  %34 = ptrtoint ptr %32 to i64
  %35 = sub i64 %33, %34
  %36 = sdiv exact i64 %35, 2
  %37 = trunc i64 %36 to i32
  store i32 %37, ptr %2, align 4
  br label %39

38:                                               ; preds = %1
  store i32 0, ptr %2, align 4
  br label %39

39:                                               ; preds = %38, %26, %11
  %40 = load i32, ptr %2, align 4
  ret i32 %40
}