; Function Attrs: mustprogress uwtable
define i32 @ucbuf_size(ptr noundef readonly %0) local_unnamed_addr #0 {
  %.not = icmp eq ptr %0, null
  br i1 %.not, label %26, label %2

2:                                                ; preds = %1
  %3 = getelementptr inbounds nuw i8, ptr %0, i64 57
  %4 = load i8, ptr %3, align 1, !tbaa !24
  %.not8 = icmp eq i8 %4, 0
  br i1 %.not8, label %17, label %5

5:                                                ; preds = %2
  %6 = getelementptr inbounds nuw i8, ptr %0, i64 40
  %7 = load ptr, ptr %6, align 8, !tbaa !25
  %8 = tail call i32 @T_FileStream_size(ptr noundef %7)
  %9 = getelementptr inbounds nuw i8, ptr %0, i64 32
  %10 = load i32, ptr %9, align 8, !tbaa !32
  %11 = sub nsw i32 %8, %10
  %12 = getelementptr inbounds nuw i8, ptr %0, i64 48
  %13 = load ptr, ptr %12, align 8, !tbaa !26
  %14 = tail call signext i8 @ucnv_getMinCharSize_77(ptr noundef %13)
  %15 = sext i8 %14 to i32
  %16 = sdiv i32 %11, %15
  br label %26

17:                                               ; preds = %2
  %18 = getelementptr inbounds nuw i8, ptr %0, i64 16
  %19 = load ptr, ptr %18, align 8, !tbaa !19
  %20 = load ptr, ptr %0, align 8, !tbaa !23
  %21 = ptrtoint ptr %19 to i64
  %22 = ptrtoint ptr %20 to i64
  %23 = sub i64 %21, %22
  %24 = lshr exact i64 %23, 1
  %25 = trunc i64 %24 to i32
  br label %26

26:                                               ; preds = %1, %17, %5
  %.0 = phi i32 [ %16, %5 ], [ %25, %17 ], [ 0, %1 ]
  ret i32 %.0
}